target datalayout = "e-m:e-p270:32:32-p271:32:32-p272:64:64-i64:64-i128:128-f80:128-n8:16:32:64-S128"
target triple = "x86_64-pc-linux-gnu"

%struct._lv_draw_buf_handlers_t = type { ptr, ptr, ptr, ptr, ptr, ptr }

; Function Attrs: inlinehint nounwind uwtable
define internal void @lv_memzero(ptr noundef %0, i64 noundef %1) #1 {
  %3 = alloca ptr, align 8
  %4 = alloca i64, align 8
  store ptr %0, ptr %3, align 8, !tbaa !8
  store i64 %1, ptr %4, align 8, !tbaa !16
  %5 = load ptr, ptr %3, align 8, !tbaa !8
  %6 = load i64, ptr %4, align 8, !tbaa !16
  call void @lv_memset(ptr noundef %5, i8 noundef zeroext 0, i64 noundef %6)
  ret void
}

; Function Attrs: nounwind uwtable
define void @lv_draw_buf_handlers_init(ptr noundef %0, ptr noundef %1, ptr noundef %2, ptr noundef %3, ptr noundef %4, ptr noundef %5, ptr noundef %6) #0 {
  %8 = alloca ptr, align 8
  %9 = alloca ptr, align 8
  %10 = alloca ptr, align 8
  %11 = alloca ptr, align 8
  %12 = alloca ptr, align 8
  %13 = alloca ptr, align 8
  %14 = alloca ptr, align 8
  store ptr %0, ptr %8, align 8, !tbaa !3
  store ptr %1, ptr %9, align 8, !tbaa !8
  store ptr %2, ptr %10, align 8, !tbaa !8
  store ptr %3, ptr %11, align 8, !tbaa !8
  store ptr %4, ptr %12, align 8, !tbaa !8
  store ptr %5, ptr %13, align 8, !tbaa !8
  store ptr %6, ptr %14, align 8, !tbaa !8
  %15 = load ptr, ptr %8, align 8, !tbaa !3
  call void @lv_memzero(ptr noundef %15, i64 noundef 48)
  %16 = load ptr, ptr %9, align 8, !tbaa !8
  %17 = load ptr, ptr %8, align 8, !tbaa !3
  %18 = getelementptr inbounds nuw %struct._lv_draw_buf_handlers_t, ptr %17, i32 0, i32 0
  store ptr %16, ptr %18, align 8, !tbaa !9
  %19 = load ptr, ptr %10, align 8, !tbaa !8
  %20 = load ptr, ptr %8, align 8, !tbaa !3
  %21 = getelementptr inbounds nuw %struct._lv_draw_buf_handlers_t, ptr %20, i32 0, i32 1
  store ptr %19, ptr %21, align 8, !tbaa !11
  %22 = load ptr, ptr %11, align 8, !tbaa !8
  %23 = load ptr, ptr %8, align 8, !tbaa !3
  %24 = getelementptr inbounds nuw %struct._lv_draw_buf_handlers_t, ptr %23, i32 0, i32 2
  store ptr %22, ptr %24, align 8, !tbaa !12
  %25 = load ptr, ptr %12, align 8, !tbaa !8
  %26 = load ptr, ptr %8, align 8, !tbaa !3
  %27 = getelementptr inbounds nuw %struct._lv_draw_buf_handlers_t, ptr %26, i32 0, i32 3
  store ptr %25, ptr %27, align 8, !tbaa !13
  %28 = load ptr, ptr %13, align 8, !tbaa !8
  %29 = load ptr, ptr %8, align 8, !tbaa !3
  %30 = getelementptr inbounds nuw %struct._lv_draw_buf_handlers_t, ptr %29, i32 0, i32 4
  store ptr %28, ptr %30, align 8, !tbaa !14
  %31 = load ptr, ptr %14, align 8, !tbaa !8
  %32 = load ptr, ptr %8, align 8, !tbaa !3
  %33 = getelementptr inbounds nuw %struct._lv_draw_buf_handlers_t, ptr %32, i32 0, i32 5
  store ptr %31, ptr %33, align 8, !tbaa !15
  ret void
}