; Function Attrs: nounwind uwtable
define void @lv_draw_buf_handlers_init(ptr noundef %0, ptr noundef %1, ptr noundef %2, ptr noundef %3, ptr noundef %4, ptr noundef %5, ptr noundef %6) local_unnamed_addr #0 {
  tail call void @lv_memset(ptr noundef %0, i8 noundef zeroext 0, i64 noundef 48) #9
  store ptr %1, ptr %0, align 8, !tbaa !3
  %8 = getelementptr inbounds nuw i8, ptr %0, i64 8
  store ptr %2, ptr %8, align 8, !tbaa !8
  %9 = getelementptr inbounds nuw i8, ptr %0, i64 16
  store ptr %3, ptr %9, align 8, !tbaa !9
  %10 = getelementptr inbounds nuw i8, ptr %0, i64 24
  store ptr %4, ptr %10, align 8, !tbaa !11
  %11 = getelementptr inbounds nuw i8, ptr %0, i64 32
  store ptr %5, ptr %11, align 8, !tbaa !12
  %12 = getelementptr inbounds nuw i8, ptr %0, i64 40
  store ptr %6, ptr %12, align 8, !tbaa !10
  ret void
}